; Function Attrs: mustprogress nofree norecurse nosync nounwind willreturn memory(argmem: readwrite) uwtable
define noundef nonnull align 4 dereferenceable(36) ptr @_ZN32pxrInternal_v0_24__pxrReserved__10GfMatrix3f9SetRotateERKNS_7GfQuatfE(ptr noundef nonnull returned writeonly align 4 dereferenceable(36) %0, ptr nocapture noundef nonnull readonly align 4 dereferenceable(16) %1) local_unnamed_addr #2 align 2 {
  %3 = getelementptr inbounds nuw i8, ptr %1, i64 12
  %4 = load float, ptr %3, align 4
  %5 = getelementptr inbounds i8, ptr %1, i64 4
  %6 = load float, ptr %5, align 4
  %7 = getelementptr inbounds i8, ptr %1, i64 8
  %8 = load float, ptr %7, align 4
  %9 = fmul float %8, %8
  %10 = tail call float @llvm.fmuladd.f32(float %6, float %6, float %9)
  %11 = fpext float %10 to double
  %12 = tail call double @llvm.fmuladd.f64(double %11, double -2.000000e+00, double 1.000000e+00)
  %13 = fptrunc double %12 to float
  store float %13, ptr %0, align 4
  %14 = load float, ptr %1, align 4
  %15 = load float, ptr %5, align 4
  %16 = load float, ptr %7, align 4
  %17 = fmul float %4, %16
  %18 = tail call float @llvm.fmuladd.f32(float %14, float %15, float %17)
  %19 = fmul float %18, 2.000000e+00
  %20 = getelementptr inbounds i8, ptr %0, i64 4
  store float %19, ptr %20, align 4
  %21 = load float, ptr %7, align 4
  %22 = load float, ptr %1, align 4
  %23 = load float, ptr %5, align 4
  %24 = fneg float %4
  %25 = fmul float %23, %24
  %26 = tail call float @llvm.fmuladd.f32(float %21, float %22, float %25)
  %27 = fmul float %26, 2.000000e+00
  %28 = getelementptr inbounds i8, ptr %0, i64 8
  store float %27, ptr %28, align 4
  %29 = load float, ptr %1, align 4
  %30 = load float, ptr %5, align 4
  %31 = load float, ptr %7, align 4
  %32 = fmul float %31, %24
  %33 = tail call float @llvm.fmuladd.f32(float %29, float %30, float %32)
  %34 = fmul float %33, 2.000000e+00
  %35 = getelementptr inbounds i8, ptr %0, i64 12
  store float %34, ptr %35, align 4
  %36 = load float, ptr %7, align 4
  %37 = load float, ptr %1, align 4
  %38 = fmul float %37, %37
  %39 = tail call float @llvm.fmuladd.f32(float %36, float %36, float %38)
  %40 = fpext float %39 to double
  %41 = tail call double @llvm.fmuladd.f64(double %40, double -2.000000e+00, double 1.000000e+00)
  %42 = fptrunc double %41 to float
  %43 = getelementptr inbounds i8, ptr %0, i64 16
  store float %42, ptr %43, align 4
  %44 = load float, ptr %5, align 4
  %45 = load float, ptr %7, align 4
  %46 = load float, ptr %1, align 4
  %47 = fmul float %4, %46
  %48 = tail call float @llvm.fmuladd.f32(float %44, float %45, float %47)
  %49 = fmul float %48, 2.000000e+00
  %50 = getelementptr inbounds i8, ptr %0, i64 20
  store float %49, ptr %50, align 4
  %51 = load float, ptr %7, align 4
  %52 = load float, ptr %1, align 4
  %53 = load float, ptr %5, align 4
  %54 = fmul float %4, %53
  %55 = tail call float @llvm.fmuladd.f32(float %51, float %52, float %54)
  %56 = fmul float %55, 2.000000e+00
  %57 = getelementptr inbounds i8, ptr %0, i64 24
  store float %56, ptr %57, align 4
  %58 = load float, ptr %5, align 4
  %59 = load float, ptr %7, align 4
  %60 = load float, ptr %1, align 4
  %61 = fmul float %60, %24
  %62 = tail call float @llvm.fmuladd.f32(float %58, float %59, float %61)
  %63 = fmul float %62, 2.000000e+00
  %64 = getelementptr inbounds i8, ptr %0, i64 28
  store float %63, ptr %64, align 4
  %65 = load float, ptr %5, align 4
  %66 = load float, ptr %1, align 4
  %67 = fmul float %66, %66
  %68 = tail call float @llvm.fmuladd.f32(float %65, float %65, float %67)
  %69 = fpext float %68 to double
  %70 = tail call double @llvm.fmuladd.f64(double %69, double -2.000000e+00, double 1.000000e+00)
  %71 = fptrunc double %70 to float
  %72 = getelementptr inbounds i8, ptr %0, i64 32
  store float %71, ptr %72, align 4
  ret ptr %0
}